target datalayout = "e-m:e-p270:32:32-p271:32:32-p272:64:64-i64:64-i128:128-f80:128-n8:16:32:64-S128"
target triple = "x86_64-pc-linux-gnu"

%struct.H5SM_read_udata_t = type { ptr, i32, i64, ptr }
%struct.H5O_mesg_t = type { ptr, i8, i8, i32, i32, ptr, ptr, i64 }

@H5SM_init_g = global i8 0, align 1
@H5_libterm_g = external global i8, align 1
@.str.4 = private unnamed_addr constant [98 x i8] c"generated/home/dtcxzyw/WorkSpace/Projects/compilers/llvm-opt-benchmark/bench/hdf5/hdf5/src/H5SM.c\00", align 1
@H5E_SOHM_g = external global i64, align 8
@H5E_CANTALLOC_g = external global i64, align 8
@H5E_CANTENCODE_g = external global i64, align 8
@__func__.H5SM__read_iter_op = private unnamed_addr constant [19 x i8] c"H5SM__read_iter_op\00", align 1
@.str.133 = private unnamed_addr constant [39 x i8] c"unable to encode object header message\00", align 1
@.str.134 = private unnamed_addr constant [25 x i8] c"memory allocation failed\00", align 1

; Function Attrs: nounwind uwtable
define internal i32 @H5SM__read_iter_op(ptr noundef %0, ptr noundef %1, i32 noundef %2, ptr noundef %3, ptr noundef %4) #0 {
  %6 = alloca ptr, align 8
  %7 = alloca ptr, align 8
  %8 = alloca i32, align 4
  %9 = alloca ptr, align 8
  %10 = alloca ptr, align 8
  %11 = alloca ptr, align 8
  %12 = alloca i32, align 4
  %13 = alloca i8, align 1
  store ptr %0, ptr %6, align 8, !tbaa !58
  store ptr %1, ptr %7, align 8, !tbaa !143
  store i32 %2, ptr %8, align 4, !tbaa !14
  store ptr %3, ptr %9, align 8, !tbaa !52
  store ptr %4, ptr %10, align 8, !tbaa !57
  call void @llvm.lifetime.start.p0(i64 8, ptr %11) #8
  %14 = load ptr, ptr %10, align 8, !tbaa !57
  store ptr %14, ptr %11, align 8, !tbaa !145
  call void @llvm.lifetime.start.p0(i64 4, ptr %12) #8
  store i32 0, ptr %12, align 4, !tbaa !14
  call void @llvm.lifetime.start.p0(i64 1, ptr %13) #8
  store i8 0, ptr %13, align 1, !tbaa !18
  %15 = load i8, ptr @H5SM_init_g, align 1, !tbaa !18, !range !20, !noundef !21
  %16 = trunc i8 %15 to i1
  br i1 %16, label %21, label %17

17:                                               ; preds = %5
  %18 = load i8, ptr @H5_libterm_g, align 1, !tbaa !18, !range !20, !noundef !21
  %19 = trunc i8 %18 to i1
  %20 = xor i1 %19, true
  br label %21

21:                                               ; preds = %17, %5
  %22 = phi i1 [ true, %5 ], [ %20, %17 ]
  %23 = xor i1 %22, true
  %24 = xor i1 %23, true
  %25 = zext i1 %24 to i32
  %26 = sext i32 %25 to i64
  %27 = call i64 @llvm.expect.i64(i64 %26, i64 1)
  %28 = icmp ne i64 %27, 0
  br i1 %28, label %29, label %112

29:                                               ; preds = %21
  %30 = load i32, ptr %8, align 4, !tbaa !14
  %31 = load ptr, ptr %11, align 8, !tbaa !145
  %32 = getelementptr inbounds nuw %struct.H5SM_read_udata_t, ptr %31, i32 0, i32 1
  %33 = load i32, ptr %32, align 8, !tbaa !117
  %34 = icmp eq i32 %30, %33
  br i1 %34, label %35, label %110

35:                                               ; preds = %29
  %36 = load ptr, ptr %7, align 8, !tbaa !143
  %37 = getelementptr inbounds nuw %struct.H5O_mesg_t, ptr %36, i32 0, i32 1
  %38 = load i8, ptr %37, align 8, !tbaa !147, !range !20, !noundef !21
  %39 = trunc i8 %38 to i1
  br i1 %39, label %40, label %68

40:                                               ; preds = %35
  %41 = load ptr, ptr %11, align 8, !tbaa !145
  %42 = getelementptr inbounds nuw %struct.H5SM_read_udata_t, ptr %41, i32 0, i32 0
  %43 = load ptr, ptr %42, align 8, !tbaa !115
  %44 = load ptr, ptr %6, align 8, !tbaa !58
  %45 = load ptr, ptr %7, align 8, !tbaa !143
  %46 = call i32 @H5O_msg_flush(ptr noundef %43, ptr noundef %44, ptr noundef %45)
  %47 = icmp slt i32 %46, 0
  br i1 %47, label %48, label %67

48:                                               ; preds = %40
  br label %49

49:                                               ; preds = %48
  br label %50

50:                                               ; preds = %49
  br label %51

51:                                               ; preds = %50
  %52 = load i64, ptr @H5E_SOHM_g, align 8, !tbaa !16
  %53 = load i64, ptr @H5E_CANTENCODE_g, align 8, !tbaa !16
  %54 = call i32 (ptr, ptr, i32, i64, i64, ptr, ...) @H5E_printf_stack(ptr noundef @.str.4, ptr noundef @__func__.H5SM__read_iter_op, i32 noundef 2254, i64 noundef %52, i64 noundef %53, ptr noundef @.str.133)
  br label %55

55:                                               ; preds = %51
  br label %56

56:                                               ; preds = %55
  store i8 1, ptr %13, align 1, !tbaa !18
  %57 = load i8, ptr %13, align 1, !tbaa !18, !range !20, !noundef !21
  %58 = trunc i8 %57 to i1
  %59 = zext i1 %58 to i8
  store i8 %59, ptr %13, align 1, !tbaa !18
  br label %60

60:                                               ; preds = %56
  br label %61

61:                                               ; preds = %60
  br label %62

62:                                               ; preds = %61
  store i32 -1, ptr %12, align 4, !tbaa !14
  br label %111

63:                                               ; No predecessors!
  br label %64

64:                                               ; preds = %63
  br label %65

65:                                               ; preds = %64
  br label %66

66:                                               ; preds = %65
  br label %67

67:                                               ; preds = %66, %40
  br label %68

68:                                               ; preds = %67, %35
  %69 = load ptr, ptr %7, align 8, !tbaa !143
  %70 = getelementptr inbounds nuw %struct.H5O_mesg_t, ptr %69, i32 0, i32 7
  %71 = load i64, ptr %70, align 8, !tbaa !150
  %72 = load ptr, ptr %11, align 8, !tbaa !145
  %73 = getelementptr inbounds nuw %struct.H5SM_read_udata_t, ptr %72, i32 0, i32 2
  store i64 %71, ptr %73, align 8, !tbaa !125
  %74 = load ptr, ptr %11, align 8, !tbaa !145
  %75 = getelementptr inbounds nuw %struct.H5SM_read_udata_t, ptr %74, i32 0, i32 2
  %76 = load i64, ptr %75, align 8, !tbaa !125
  %77 = call noalias ptr @malloc(i64 noundef %76) #9
  %78 = load ptr, ptr %11, align 8, !tbaa !145
  %79 = getelementptr inbounds nuw %struct.H5SM_read_udata_t, ptr %78, i32 0, i32 3
  store ptr %77, ptr %79, align 8, !tbaa !118
  %80 = icmp eq ptr null, %77
  br i1 %80, label %81, label %100

81:                                               ; preds = %68
  br label %82

82:                                               ; preds = %81
  br label %83

83:                                               ; preds = %82
  br label %84

84:                                               ; preds = %83
  %85 = load i64, ptr @H5E_SOHM_g, align 8, !tbaa !16
  %86 = load i64, ptr @H5E_CANTALLOC_g, align 8, !tbaa !16
  %87 = call i32 (ptr, ptr, i32, i64, i64, ptr, ...) @H5E_printf_stack(ptr noundef @.str.4, ptr noundef @__func__.H5SM__read_iter_op, i32 noundef 2262, i64 noundef %85, i64 noundef %86, ptr noundef @.str.134)
  br label %88

88:                                               ; preds = %84
  br label %89

89:                                               ; preds = %88
  store i8 1, ptr %13, align 1, !tbaa !18
  %90 = load i8, ptr %13, align 1, !tbaa !18, !range !20, !noundef !21
  %91 = trunc i8 %90 to i1
  %92 = zext i1 %91 to i8
  store i8 %92, ptr %13, align 1, !tbaa !18
  br label %93

93:                                               ; preds = %89
  br label %94

94:                                               ; preds = %93
  br label %95

95:                                               ; preds = %94
  store i32 -1, ptr %12, align 4, !tbaa !14
  br label %111

96:                                               ; No predecessors!
  br label %97

97:                                               ; preds = %96
  br label %98

98:                                               ; preds = %97
  br label %99

99:                                               ; preds = %98
  br label %100

100:                                              ; preds = %99, %68
  %101 = load ptr, ptr %11, align 8, !tbaa !145
  %102 = getelementptr inbounds nuw %struct.H5SM_read_udata_t, ptr %101, i32 0, i32 3
  %103 = load ptr, ptr %102, align 8, !tbaa !118
  %104 = load ptr, ptr %7, align 8, !tbaa !143
  %105 = getelementptr inbounds nuw %struct.H5O_mesg_t, ptr %104, i32 0, i32 6
  %106 = load ptr, ptr %105, align 8, !tbaa !151
  %107 = load ptr, ptr %11, align 8, !tbaa !145
  %108 = getelementptr inbounds nuw %struct.H5SM_read_udata_t, ptr %107, i32 0, i32 2
  %109 = load i64, ptr %108, align 8, !tbaa !125
  call void @llvm.memcpy.p0.p0.i64(ptr align 1 %103, ptr align 1 %106, i64 %109, i1 false)
  store i32 1, ptr %12, align 4, !tbaa !14
  br label %110

110:                                              ; preds = %100, %29
  br label %111

111:                                              ; preds = %110, %95, %62
  br label %112

112:                                              ; preds = %111, %21
  %113 = load i32, ptr %12, align 4, !tbaa !14
  call void @llvm.lifetime.end.p0(i64 1, ptr %13) #8
  call void @llvm.lifetime.end.p0(i64 4, ptr %12) #8
  call void @llvm.lifetime.end.p0(i64 8, ptr %11) #8
  ret i32 %113
}