; Function Attrs: nounwind uwtable
define internal range(i32 -1, 2) i32 @H5SM__read_iter_op(ptr noundef %0, ptr noundef %1, i32 noundef %2, ptr readnone captures(none) %3, ptr noundef captures(none) %4) #0 {
  %6 = load i8, ptr @H5SM_init_g, align 1, !tbaa !9, !range !11, !noundef !12
  %7 = trunc nuw i8 %6 to i1
  %8 = load i8, ptr @H5_libterm_g, align 1, !range !11
  %9 = trunc nuw i8 %8 to i1
  %10 = xor i1 %9, true
  %11 = select i1 %7, i1 true, i1 %10
  br i1 %11, label %12, label %42, !prof !13

12:                                               ; preds = %5
  %13 = getelementptr inbounds nuw i8, ptr %4, i64 8
  %14 = load i32, ptr %13, align 8, !tbaa !104
  %15 = icmp eq i32 %2, %14
  br i1 %15, label %16, label %42

16:                                               ; preds = %12
  %17 = getelementptr inbounds nuw i8, ptr %1, i64 8
  %18 = load i8, ptr %17, align 8, !tbaa !121, !range !11, !noundef !12
  %19 = trunc nuw i8 %18 to i1
  br i1 %19, label %20, label %28

20:                                               ; preds = %16
  %21 = load ptr, ptr %4, align 8, !tbaa !101
  %22 = tail call i32 @H5O_msg_flush(ptr noundef %21, ptr noundef %0, ptr noundef nonnull %1) #11
  %23 = icmp slt i32 %22, 0
  br i1 %23, label %24, label %28

24:                                               ; preds = %20
  %25 = load i64, ptr @H5E_SOHM_g, align 8, !tbaa !7
  %26 = load i64, ptr @H5E_CANTENCODE_g, align 8, !tbaa !7
  %27 = tail call i32 (ptr, ptr, i32, i64, i64, ptr, ...) @H5E_printf_stack(ptr noundef nonnull @.str.4, ptr noundef nonnull @__func__.H5SM__read_iter_op, i32 noundef 2254, i64 noundef %25, i64 noundef %26, ptr noundef nonnull @.str.133) #11
  br label %42

28:                                               ; preds = %20, %16
  %29 = getelementptr inbounds nuw i8, ptr %1, i64 40
  %30 = load i64, ptr %29, align 8, !tbaa !124
  %31 = getelementptr inbounds nuw i8, ptr %4, i64 16
  store i64 %30, ptr %31, align 8, !tbaa !111
  %32 = tail call noalias ptr @malloc(i64 noundef %30) #12
  %33 = getelementptr inbounds nuw i8, ptr %4, i64 24
  store ptr %32, ptr %33, align 8, !tbaa !103
  %34 = icmp eq ptr %32, null
  br i1 %34, label %35, label %39

35:                                               ; preds = %28
  %36 = load i64, ptr @H5E_SOHM_g, align 8, !tbaa !7
  %37 = load i64, ptr @H5E_CANTALLOC_g, align 8, !tbaa !7
  %38 = tail call i32 (ptr, ptr, i32, i64, i64, ptr, ...) @H5E_printf_stack(ptr noundef nonnull @.str.4, ptr noundef nonnull @__func__.H5SM__read_iter_op, i32 noundef 2262, i64 noundef %36, i64 noundef %37, ptr noundef nonnull @.str.134) #11
  br label %42

39:                                               ; preds = %28
  %40 = getelementptr inbounds nuw i8, ptr %1, i64 32
  %41 = load ptr, ptr %40, align 8, !tbaa !125
  tail call void @llvm.memcpy.p0.p0.i64(ptr nonnull align 1 %32, ptr align 1 %41, i64 %30, i1 false)
  br label %42

42:                                               ; preds = %24, %35, %39, %12, %5
  %.0 = phi i32 [ -1, %24 ], [ -1, %35 ], [ 1, %39 ], [ 0, %12 ], [ 0, %5 ]
  ret i32 %.0
}